CCS PCM C Compiler, Version 4.057, 6212               06-ene-11 17:36

               Filename: mainLuces.lst

               ROM used: 79 words (1%)
                         Largest free fragment is 2048
               RAM used: 8 (2%) at main() level
                         10 (3%) worst case
               Stack:    1 locations

*
0000:  MOVLW  00
0001:  MOVWF  0A
0002:  GOTO   01F
0003:  NOP
.................... #INCLUDE "C:\Archivos de programa\PICC\Devices\16f877a.h" 
.................... //////// Standard Header file for the PIC16F877A device //////////////// 
.................... #device PIC16F877A 
.................... #list 
....................  
.................... #FUSES HS,NOWDT,NOLVP,PUT,NOPROTECT 
.................... #USE delay(clock=4000000) 
*
0008:  MOVLW  23
0009:  MOVWF  04
000A:  BCF    03.7
000B:  MOVF   00,W
000C:  BTFSC  03.2
000D:  GOTO   01C
000E:  MOVLW  01
000F:  MOVWF  78
0010:  CLRF   77
0011:  DECFSZ 77,F
0012:  GOTO   011
0013:  DECFSZ 78,F
0014:  GOTO   010
0015:  MOVLW  4A
0016:  MOVWF  77
0017:  DECFSZ 77,F
0018:  GOTO   017
0019:  GOTO   01A
001A:  DECFSZ 00,F
001B:  GOTO   00E
.................... #BYTE PORTB=0x06  
.................... #BYTE PORTD=0x08 
.................... #BIT RB0=0x06.0 
.................... #BIT RB1=0x06.1 
.................... #BIT RB2=0x06.2 
.................... #BIT RB3=0x06.3 
.................... #BIT RB4=0x06.4 
.................... #BIT RB5=0x06.5 
.................... #BIT RB6=0x06.6 
....................  
.................... int apaga=0,prende=1; 
*
002A:  BCF    03.5
002B:  CLRF   20
002C:  MOVLW  01
002D:  MOVWF  21
.................... void waitletra(){delay_ms(1000);}//delay_us(500) 
*
0004:  MOVLW  04
0005:  MOVWF  22
0006:  MOVLW  FA
0007:  MOVWF  23
*
001C:  DECFSZ 22,F
001D:  GOTO   006
001E:  RETLW  00
....................  
.................... void fila(){delay_ms(1);}//delay_us(500) 
....................  
.................... void letrero(){ 
....................  
....................      RB6=apaga; 
....................      fila(); 
....................      RB0=prende; 
....................      waitletra(); 
.................... 	    
.................... 	 RB0=apaga; 
....................      fila(); 
....................      RB1=prende; 
....................      waitletra(); 
.................... 	    
.................... 	 RB1=apaga; 
....................      fila(); 
....................      RB2=prende; 
....................      waitletra(); 
.................... 	    
.................... 	 RB2=apaga; 
....................      fila(); 
....................      RB3=prende; 
....................      waitletra(); 
.................... 	    
.................... 	 RB3=apaga; 
....................      fila(); 
....................      RB4=prende; 
....................      waitletra(); 
.................... 	    
.................... 	 RB4=apaga; 
....................      fila(); 
....................      RB5=prende; 
....................      waitletra(); 
.................... 	    
.................... 	 RB5=apaga; 
....................      fila(); 
....................      RB6=prende; 
....................      waitletra();  
....................       
.................... } 
....................  
....................  
.................... void main(void) 
.................... { 
001F:  CLRF   04
0020:  BCF    03.7
0021:  MOVLW  1F
0022:  ANDWF  03,F
0023:  BSF    03.5
0024:  BSF    1F.0
0025:  BSF    1F.1
0026:  BSF    1F.2
0027:  BCF    1F.3
0028:  MOVLW  07
0029:  MOVWF  1C
.................... set_tris_b(0x00);  
*
002E:  MOVLW  00
002F:  BSF    03.5
0030:  MOVWF  06
.................... set_tris_d(0x00);  
0031:  MOVWF  08
....................     PORTB=0; 
0032:  BCF    03.5
0033:  CLRF   06
....................    PORTD=0; 
0034:  CLRF   08
.................... 	while(TRUE) 
....................     {	 
.................... 	   	    //letrero(); 
.................... PORTD=0x01; 
0035:  MOVLW  01
0036:  MOVWF  08
....................  waitletra(); 
0037:  CALL   004
.................... PORTD=PORTD * 2; 
0038:  BCF    03.0
0039:  RLF    08,F
....................  waitletra(); 
003A:  CALL   004
.................... PORTD=PORTD * 2; 
003B:  BCF    03.0
003C:  RLF    08,F
....................  waitletra(); 
003D:  CALL   004
.................... PORTD=PORTD * 2; 
003E:  BCF    03.0
003F:  RLF    08,F
....................  waitletra(); 
0040:  CALL   004
.................... PORTD=PORTD * 2; 
0041:  BCF    03.0
0042:  RLF    08,F
....................  waitletra(); 
0043:  CALL   004
.................... PORTD=PORTD * 2; 
0044:  BCF    03.0
0045:  RLF    08,F
....................  waitletra(); 
0046:  CALL   004
.................... PORTD=PORTD * 2; 
0047:  BCF    03.0
0048:  RLF    08,F
....................  waitletra(); 
0049:  CALL   004
.................... PORTD=PORTD * 2; 
004A:  BCF    03.0
004B:  RLF    08,F
....................  waitletra(); 
004C:  CALL   004
....................     	 
....................      }      	 
004D:  GOTO   035
.................... 	 			 
.................... } 
....................  
....................  
004E:  SLEEP

Configuration Fuses:
   Word  1: 3F72   HS NOWDT PUT NODEBUG NOPROTECT BROWNOUT NOLVP NOCPD NOWRT
